target datalayout = "e-m:e-p270:32:32-p271:32:32-p272:64:64-i64:64-i128:128-f80:128-n8:16:32:64-S128"
target triple = "x86_64-pc-linux-gnu"

%union.pthread_mutex_t = type { %struct.__pthread_mutex_s }
%struct.__pthread_mutex_s = type { i32, i32, i32, i32, i32, i16, i16, %struct.__pthread_internal_list }
%struct.__pthread_internal_list = type { ptr, ptr }

@is_ping_done.ping_msg_sent = internal global i8 0, align 1
@lock_mutex = internal global %union.pthread_mutex_t zeroinitializer, align 8
@.str = private unnamed_addr constant [29 x i8] c"%s: pthread_mutex_lock(): %m\00", align 1
@__func__.is_ping_done = private unnamed_addr constant [13 x i8] c"is_ping_done\00", align 1
@ping_count = internal global i32 0, align 4
@ping_start = internal global i64 0, align 8
@.str.2 = private unnamed_addr constant [31 x i8] c"%s: pthread_mutex_unlock(): %m\00", align 1

; Function Attrs: nounwind uwtable
define dso_local zeroext i1 @is_ping_done() #0 {
  %1 = alloca i8, align 1
  %2 = alloca i32, align 4
  %3 = alloca i32, align 4
  call void @llvm.lifetime.start.p0(i64 1, ptr %1) #6
  store i8 1, ptr %1, align 1
  br label %4

4:                                                ; preds = %0
  call void @llvm.lifetime.start.p0(i64 4, ptr %2) #6
  %5 = call i32 @pthread_mutex_lock(ptr noundef @lock_mutex) #6
  store i32 %5, ptr %2, align 4
  %6 = load i32, ptr %2, align 4
  %7 = icmp ne i32 %6, 0
  br i1 %7, label %8, label %11

8:                                                ; preds = %4
  %9 = load i32, ptr %2, align 4
  %10 = call ptr @__errno_location() #7
  store i32 %9, ptr %10, align 4
  call void (ptr, ...) @fatal_abort(ptr noundef @.str, ptr noundef @__func__.is_ping_done) #8
  unreachable

11:                                               ; preds = %4
  call void @llvm.lifetime.end.p0(i64 4, ptr %2) #6
  br label %12

12:                                               ; preds = %11
  br label %13

13:                                               ; preds = %12
  %14 = load i32, ptr @ping_count, align 4
  %15 = icmp ne i32 %14, 0
  br i1 %15, label %16, label %27

16:                                               ; preds = %13
  store i8 0, ptr %1, align 1
  %17 = load i8, ptr @is_ping_done.ping_msg_sent, align 1, !range !8, !noundef !9
  %18 = trunc i8 %17 to i1
  br i1 %18, label %26, label %19

19:                                               ; preds = %16
  %20 = call i64 @time(ptr noundef null) #6
  %21 = load i64, ptr @ping_start, align 8
  %22 = call double @difftime(i64 noundef %20, i64 noundef %21) #7
  %23 = fcmp oge double %22, 1.000000e+02
  br i1 %23, label %24, label %26

24:                                               ; preds = %19
  %25 = call i32 (ptr, ...) @error(ptr noundef @.str.1, i32 noundef 100)
  store i8 1, ptr @is_ping_done.ping_msg_sent, align 1
  br label %26

26:                                               ; preds = %24, %19, %16
  br label %28

27:                                               ; preds = %13
  store i8 0, ptr @is_ping_done.ping_msg_sent, align 1
  br label %28

28:                                               ; preds = %27, %26
  br label %29

29:                                               ; preds = %28
  call void @llvm.lifetime.start.p0(i64 4, ptr %3) #6
  %30 = call i32 @pthread_mutex_unlock(ptr noundef @lock_mutex) #6
  store i32 %30, ptr %3, align 4
  %31 = load i32, ptr %3, align 4
  %32 = icmp ne i32 %31, 0
  br i1 %32, label %33, label %36

33:                                               ; preds = %29
  %34 = load i32, ptr %3, align 4
  %35 = call ptr @__errno_location() #7
  store i32 %34, ptr %35, align 4
  call void (ptr, ...) @fatal_abort(ptr noundef @.str.2, ptr noundef @__func__.is_ping_done) #8
  unreachable

36:                                               ; preds = %29
  call void @llvm.lifetime.end.p0(i64 4, ptr %3) #6
  br label %37

37:                                               ; preds = %36
  br label %38

38:                                               ; preds = %37
  %39 = load i8, ptr %1, align 1, !range !8, !noundef !9
  %40 = trunc i8 %39 to i1
  call void @llvm.lifetime.end.p0(i64 1, ptr %1) #6
  ret i1 %40
}