; Function Attrs: nounwind uwtable
define dso_local noundef zeroext i1 @is_ping_done() local_unnamed_addr #0 {
  %1 = tail call i32 @pthread_mutex_lock(ptr noundef nonnull @lock_mutex) #7
  %.not = icmp eq i32 %1, 0
  br i1 %.not, label %4, label %2

2:                                                ; preds = %0
  %3 = tail call ptr @__errno_location() #8
  store i32 %1, ptr %3, align 4
  tail call void (ptr, ...) @fatal_abort(ptr noundef nonnull @.str, ptr noundef nonnull @__func__.is_ping_done) #9
  unreachable

4:                                                ; preds = %0
  %5 = load i32, ptr @ping_count, align 4
  %.not7 = icmp eq i32 %5, 0
  br i1 %.not7, label %.sink.split, label %6

6:                                                ; preds = %4
  %.b8 = load i1, ptr @is_ping_done.ping_msg_sent, align 1
  br i1 %.b8, label %14, label %7

7:                                                ; preds = %6
  %8 = tail call i64 @time(ptr noundef null) #7
  %9 = load i64, ptr @ping_start, align 8
  %10 = tail call double @difftime(i64 noundef %8, i64 noundef %9) #8
  %11 = fcmp ult double %10, 1.000000e+02
  br i1 %11, label %14, label %12

12:                                               ; preds = %7
  %13 = tail call i32 (ptr, ...) @error(ptr noundef nonnull @.str.1, i32 noundef 100) #7
  br label %.sink.split

.sink.split:                                      ; preds = %4, %12
  %.sink = xor i1 %.not7, true
  store i1 %.sink, ptr @is_ping_done.ping_msg_sent, align 1
  br label %14

14:                                               ; preds = %.sink.split, %7, %6
  %15 = tail call i32 @pthread_mutex_unlock(ptr noundef nonnull @lock_mutex) #7
  %.not9 = icmp eq i32 %15, 0
  br i1 %.not9, label %18, label %16

16:                                               ; preds = %14
  %17 = tail call ptr @__errno_location() #8
  store i32 %15, ptr %17, align 4
  tail call void (ptr, ...) @fatal_abort(ptr noundef nonnull @.str.2, ptr noundef nonnull @__func__.is_ping_done) #9
  unreachable

18:                                               ; preds = %14
  ret i1 %.not7
}